; Function Attrs: mustprogress uwtable
define void @_ZNK8QuantLib22MakeFdCIRVanillaEnginecvN5boost10shared_ptrINS_13PricingEngineEEEEv(ptr dead_on_unwind noalias nocapture writable writeonly sret(%"class.boost::shared_ptr.15") align 8 %agg.result, ptr noundef nonnull align 8 dereferenceable(128) %this) local_unnamed_addr #8 align 2 personality ptr @__gxx_personality_v0 {
entry:
  %ref.tmp = alloca %"class.boost::shared_ptr.82", align 8
  call void @llvm.lifetime.start.p0(i64 16, ptr nonnull %ref.tmp) #25
  %schemeDesc_ = getelementptr inbounds nuw i8, ptr %this, i64 96
  %0 = load ptr, ptr %schemeDesc_, align 8, !tbaa !172
  %cmp.not.i = icmp eq ptr %0, null
  br i1 %cmp.not.i, label %cond.false.i, label %_ZN5boost10shared_ptrIN8QuantLib18FdCIRVanillaEngineEED2Ev.exit, !prof !93

cond.false.i:                                     ; preds = %entry
  tail call void @_ZN5boost16assertion_failedEPKcS1_S1_l(ptr noundef nonnull @.str.14, ptr noundef nonnull @__PRETTY_FUNCTION__._ZNK5boost10shared_ptrIN8QuantLib13FdmSchemeDescEEdeEv, ptr noundef nonnull @.str.15, i64 noundef 778)
  %.pre.i = load ptr, ptr %schemeDesc_, align 8, !tbaa !172
  br label %_ZN5boost10shared_ptrIN8QuantLib18FdCIRVanillaEngineEED2Ev.exit

_ZN5boost10shared_ptrIN8QuantLib18FdCIRVanillaEngineEED2Ev.exit: ; preds = %cond.false.i, %entry
  %1 = phi ptr [ %0, %entry ], [ %.pre.i, %cond.false.i ]
  %rho_ = getelementptr inbounds nuw i8, ptr %this, i64 56
  %dampingSteps_ = getelementptr inbounds nuw i8, ptr %this, i64 88
  %rGrid_ = getelementptr inbounds nuw i8, ptr %this, i64 80
  %xGrid_ = getelementptr inbounds nuw i8, ptr %this, i64 72
  %tGrid_ = getelementptr inbounds nuw i8, ptr %this, i64 64
  %dividends_ = getelementptr inbounds nuw i8, ptr %this, i64 32
  %bsProcess_ = getelementptr inbounds nuw i8, ptr %this, i64 16
  %quantoHelper_ = getelementptr inbounds nuw i8, ptr %this, i64 112
  call void @_ZN5boost11make_sharedIN8QuantLib18FdCIRVanillaEngineEJRKNS_10shared_ptrINS1_23CoxIngersollRossProcessEEERKNS3_INS1_30GeneralizedBlackScholesProcessEEERKSt6vectorINS3_INS1_8DividendEEESaISE_EERKmSK_SK_SK_RKdRNS1_13FdmSchemeDescERKNS3_INS1_15FdmQuantoHelperEEEEEENS_6detail15sp_if_not_arrayIT_E4typeEDpOT0_(ptr dead_on_unwind nonnull writable sret(%"class.boost::shared_ptr.82") align 8 %ref.tmp, ptr noundef nonnull align 8 dereferenceable(16) %this, ptr noundef nonnull align 8 dereferenceable(16) %bsProcess_, ptr noundef nonnull align 8 dereferenceable(24) %dividends_, ptr noundef nonnull align 8 dereferenceable(8) %tGrid_, ptr noundef nonnull align 8 dereferenceable(8) %xGrid_, ptr noundef nonnull align 8 dereferenceable(8) %rGrid_, ptr noundef nonnull align 8 dereferenceable(8) %dampingSteps_, ptr noundef nonnull align 8 dereferenceable(8) %rho_, ptr noundef nonnull align 8 dereferenceable(24) %1, ptr noundef nonnull align 8 dereferenceable(16) %quantoHelper_)
  %2 = load ptr, ptr %ref.tmp, align 8, !tbaa !174
  store ptr %2, ptr %agg.result, align 8, !tbaa !176
  %pn.i = getelementptr inbounds nuw i8, ptr %agg.result, i64 8
  %pn3.i = getelementptr inbounds nuw i8, ptr %ref.tmp, i64 8
  %3 = load ptr, ptr %pn3.i, align 8, !tbaa !37
  store ptr %3, ptr %pn.i, align 8, !tbaa !37
  call void @llvm.lifetime.end.p0(i64 16, ptr nonnull %ref.tmp) #25
  ret void
}